; Function Attrs: mustprogress nounwind uwtable
define hidden void @_ZN21ImplicitNullCheckStub9emit_codeEP13LIR_Assembler(ptr noundef nonnull align 8 dereferenceable(100) %0, ptr noundef %1) unnamed_addr #0 align 2 {
  %3 = alloca %class.AddressLiteral, align 8
  %4 = alloca %class.RuntimeAddress, align 8
  %5 = getelementptr inbounds i8, ptr %0, i64 88
  %6 = load ptr, ptr %5, align 8
  %7 = getelementptr inbounds i8, ptr %6, i64 41
  %8 = load i8, ptr %7, align 1
  %9 = trunc i8 %8 to i1
  %. = select i1 %9, i32 32, i32 6
  %10 = tail call noundef ptr @_ZN8Runtime18blob_forENS_6StubIDE(i32 noundef %.) #6
  %11 = getelementptr inbounds i8, ptr %10, i64 36
  %12 = load i32, ptr %11, align 4
  %13 = sext i32 %12 to i64
  %14 = getelementptr inbounds i8, ptr %10, i64 %13
  %15 = getelementptr inbounds i8, ptr %1, i64 16
  %16 = load ptr, ptr %15, align 8
  %17 = getelementptr inbounds i8, ptr %16, i64 168
  %18 = getelementptr inbounds i8, ptr %0, i64 96
  %19 = load i32, ptr %18, align 8
  %20 = load ptr, ptr %1, align 8
  %21 = getelementptr inbounds i8, ptr %20, i64 8
  %22 = load ptr, ptr %21, align 8
  %23 = getelementptr inbounds i8, ptr %22, i64 16
  %24 = load ptr, ptr %23, align 8
  %25 = load ptr, ptr %22, align 8
  %26 = ptrtoint ptr %24 to i64
  %27 = ptrtoint ptr %25 to i64
  %28 = sub i64 %26, %27
  %29 = trunc i64 %28 to i32
  tail call void @_ZN22ImplicitExceptionTable6appendEjj(ptr noundef nonnull align 8 dereferenceable(17) %17, i32 noundef %19, i32 noundef %29) #6
  %30 = load ptr, ptr %1, align 8
  %31 = getelementptr inbounds i8, ptr %0, i64 8
  tail call void @_ZN17AbstractAssembler4bindER5Label(ptr noundef nonnull align 8 dereferenceable(24) %30, ptr noundef nonnull align 8 dereferenceable(33) %31) #6
  %32 = load ptr, ptr %1, align 8
  call void @_ZN14AddressLiteralC2EPhN9relocInfo9relocTypeE(ptr noundef nonnull align 8 dereferenceable(56) %4, ptr noundef nonnull %14, i32 noundef 6) #6
  %33 = load ptr, ptr %4, align 8
  %34 = getelementptr inbounds i8, ptr %33, i64 16
  %35 = load ptr, ptr %34, align 8
  call void %35(ptr noundef nonnull align 8 dereferenceable(20) %4, ptr noundef nonnull align 8 dereferenceable(40) %3) #6
  %36 = getelementptr inbounds i8, ptr %3, i64 40
  %37 = getelementptr inbounds i8, ptr %4, i64 40
  call void @llvm.memcpy.p0.p0.i64(ptr noundef nonnull align 8 dereferenceable(16) %36, ptr noundef nonnull align 8 dereferenceable(16) %37, i64 16, i1 false)
  call void @_ZN14MacroAssembler4callE14AddressLiteral8Register(ptr noundef nonnull align 8 dereferenceable(40) %32, ptr noundef nonnull %3, i32 0) #6
  %38 = load ptr, ptr %5, align 8
  %39 = call noundef i32 @_ZNK13LIR_Assembler11code_offsetEv(ptr noundef nonnull align 8 dereferenceable(96) %1) #6
  call void @_ZN13LIR_Assembler13add_call_infoEiP12CodeEmitInfo(ptr noundef nonnull align 8 dereferenceable(96) %1, i32 noundef %39, ptr noundef %38) #6
  %40 = load ptr, ptr %5, align 8
  call void @_ZN13LIR_Assembler14verify_oop_mapEP12CodeEmitInfo(ptr noundef nonnull align 8 dereferenceable(96) %1, ptr noundef %40) #6
  ret void
}